; Function Attrs: mustprogress nounwind uwtable
define dso_local void @_ZN4llvm10MCStreamer9emitZerosEm(ptr noundef nonnull align 8 dereferenceable(288) %0, i64 noundef %1) local_unnamed_addr #0 align 2 {
  %.not.i = icmp eq i64 %1, 0
  br i1 %.not.i, label %_ZN4llvm10MCStreamer8emitFillEmh.exit, label %3

3:                                                ; preds = %2
  %4 = getelementptr inbounds nuw i8, ptr %0, i64 8
  %5 = load ptr, ptr %4, align 8
  %6 = tail call noundef ptr @_ZN4llvm14MCConstantExpr6createElRNS_9MCContextEbj(i64 noundef %1, ptr noundef nonnull align 8 dereferenceable(2432) %5, i1 noundef zeroext false, i32 noundef 0) #23
  %7 = load ptr, ptr %0, align 8
  %8 = getelementptr inbounds i8, ptr %7, i64 616
  %9 = load ptr, ptr %8, align 8
  tail call void %9(ptr noundef nonnull align 8 dereferenceable(288) %0, ptr noundef nonnull align 8 dereferenceable(16) %6, i64 noundef 0, ptr null) #23
  br label %_ZN4llvm10MCStreamer8emitFillEmh.exit

_ZN4llvm10MCStreamer8emitFillEmh.exit:            ; preds = %2, %3
  ret void
}